; Function Attrs: mustprogress uwtable
define void @_ZNK6icu_779VTimeZone11writeFooterERNS_9VTZWriterER10UErrorCode(ptr nonnull readnone align 8 captures(none) %0, ptr noundef nonnull readonly align 8 captures(none) dereferenceable(8) %1, ptr noundef nonnull readonly align 4 captures(none) dereferenceable(4) %2) local_unnamed_addr #2 align 2 personality ptr @__gxx_personality_v0 {
  %4 = alloca i16, align 2
  %5 = load i32, ptr %2, align 4, !tbaa !31
  %6 = icmp slt i32 %5, 1
  br i1 %6, label %7, label %22

7:                                                ; preds = %3
  %8 = load ptr, ptr %1, align 8, !tbaa !3
  %9 = invoke noundef nonnull align 8 dereferenceable(64) ptr @_ZN6icu_7713UnicodeString8doAppendEPKDsii(ptr noundef nonnull align 8 dereferenceable(64) %8, ptr noundef nonnull @_ZN6icu_77L8ICAL_ENDE, i32 noundef 0, i32 noundef -1)
          to label %_ZN6icu_779VTZWriter5writeEPKDs.exit unwind label %10

common.resume:                                    ; preds = %20, %16, %10
  %common.resume.op = phi { ptr, i32 } [ %11, %10 ], [ %17, %16 ], [ %21, %20 ]
  resume { ptr, i32 } %common.resume.op

10:                                               ; preds = %7
  %11 = landingpad { ptr, i32 }
          cleanup
  tail call void asm sideeffect "", "rm,~{memory},~{dirflag},~{fpsr},~{flags}"(ptr nonnull @_ZN6icu_77L8ICAL_ENDE) #16, !srcloc !12
  br label %common.resume

_ZN6icu_779VTZWriter5writeEPKDs.exit:             ; preds = %7
  tail call void asm sideeffect "", "rm,~{memory},~{dirflag},~{fpsr},~{flags}"(ptr nonnull @_ZN6icu_77L8ICAL_ENDE) #16, !srcloc !12
  %12 = load ptr, ptr %1, align 8, !tbaa !3
  call void @llvm.lifetime.start.p0(i64 2, ptr nonnull %4)
  store i16 58, ptr %4, align 2, !tbaa !10
  %13 = call noundef nonnull align 8 dereferenceable(64) ptr @_ZN6icu_7713UnicodeString8doAppendEPKDsii(ptr noundef nonnull align 8 dereferenceable(64) %12, ptr noundef nonnull %4, i32 noundef 0, i32 noundef 1)
  call void @llvm.lifetime.end.p0(i64 2, ptr nonnull %4)
  %14 = load ptr, ptr %1, align 8, !tbaa !3
  %15 = invoke noundef nonnull align 8 dereferenceable(64) ptr @_ZN6icu_7713UnicodeString8doAppendEPKDsii(ptr noundef nonnull align 8 dereferenceable(64) %14, ptr noundef nonnull @_ZN6icu_77L14ICAL_VTIMEZONEE, i32 noundef 0, i32 noundef -1)
          to label %_ZN6icu_779VTZWriter5writeEPKDs.exit5 unwind label %16

16:                                               ; preds = %_ZN6icu_779VTZWriter5writeEPKDs.exit
  %17 = landingpad { ptr, i32 }
          cleanup
  call void asm sideeffect "", "rm,~{memory},~{dirflag},~{fpsr},~{flags}"(ptr nonnull @_ZN6icu_77L14ICAL_VTIMEZONEE) #16, !srcloc !12
  br label %common.resume

_ZN6icu_779VTZWriter5writeEPKDs.exit5:            ; preds = %_ZN6icu_779VTZWriter5writeEPKDs.exit
  call void asm sideeffect "", "rm,~{memory},~{dirflag},~{fpsr},~{flags}"(ptr nonnull @_ZN6icu_77L14ICAL_VTIMEZONEE) #16, !srcloc !12
  %18 = load ptr, ptr %1, align 8, !tbaa !3
  %19 = invoke noundef nonnull align 8 dereferenceable(64) ptr @_ZN6icu_7713UnicodeString8doAppendEPKDsii(ptr noundef nonnull align 8 dereferenceable(64) %18, ptr noundef nonnull @_ZN6icu_77L12ICAL_NEWLINEE, i32 noundef 0, i32 noundef -1)
          to label %_ZN6icu_779VTZWriter5writeEPKDs.exit6 unwind label %20

20:                                               ; preds = %_ZN6icu_779VTZWriter5writeEPKDs.exit5
  %21 = landingpad { ptr, i32 }
          cleanup
  call void asm sideeffect "", "rm,~{memory},~{dirflag},~{fpsr},~{flags}"(ptr nonnull @_ZN6icu_77L12ICAL_NEWLINEE) #16, !srcloc !12
  br label %common.resume

_ZN6icu_779VTZWriter5writeEPKDs.exit6:            ; preds = %_ZN6icu_779VTZWriter5writeEPKDs.exit5
  call void asm sideeffect "", "rm,~{memory},~{dirflag},~{fpsr},~{flags}"(ptr nonnull @_ZN6icu_77L12ICAL_NEWLINEE) #16, !srcloc !12
  br label %22

22:                                               ; preds = %3, %_ZN6icu_779VTZWriter5writeEPKDs.exit6
  ret void
}